; Function Attrs: mustprogress uwtable
define void @_ZN6icu_7721RuleBasedNumberFormat21getRuleSetDisplayNameERKNS_13UnicodeStringERKNS_6LocaleE(ptr dead_on_unwind noalias writable sret(%"class.icu_77::UnicodeString") align 8 %0, ptr noundef nonnull align 8 dereferenceable(456) %1, ptr noundef nonnull align 8 dereferenceable(64) %2, ptr noundef nonnull align 8 dereferenceable(217) %3) unnamed_addr #3 align 2 personality ptr @__gxx_personality_v0 {
  %5 = alloca %"class.icu_77::UnicodeString", align 8
  %6 = getelementptr inbounds nuw i8, ptr %1, i64 368
  %7 = load ptr, ptr %6, align 8, !tbaa !91
  %.not = icmp eq ptr %7, null
  br i1 %.not, label %23, label %8

8:                                                ; preds = %4
  call void @llvm.lifetime.start.p0(i64 64, ptr nonnull %5) #21
  call void @_ZN6icu_7713UnicodeStringC1ERKS0_(ptr noundef nonnull align 8 dereferenceable(64) %5, ptr noundef nonnull align 8 dereferenceable(64) %2)
  %9 = load ptr, ptr %6, align 8, !tbaa !91
  %10 = invoke noundef ptr @_ZN6icu_7713UnicodeString19getTerminatedBufferEv(ptr noundef nonnull align 8 dereferenceable(64) %5)
          to label %11 unwind label %21

11:                                               ; preds = %8
  %12 = load ptr, ptr %9, align 8, !tbaa !3
  %13 = getelementptr inbounds nuw i8, ptr %12, i64 72
  %14 = load ptr, ptr %13, align 8
  %15 = invoke noundef i32 %14(ptr noundef nonnull align 8 dereferenceable(12) %9, ptr noundef %10)
          to label %16 unwind label %21

16:                                               ; preds = %11
  %17 = load ptr, ptr %1, align 8, !tbaa !3
  %18 = getelementptr inbounds nuw i8, ptr %17, i64 336
  %19 = load ptr, ptr %18, align 8
  invoke void %19(ptr dead_on_unwind writable sret(%"class.icu_77::UnicodeString") align 8 %0, ptr noundef nonnull align 8 dereferenceable(456) %1, i32 noundef %15, ptr noundef nonnull align 8 dereferenceable(217) %3)
          to label %20 unwind label %21

20:                                               ; preds = %16
  call void @_ZN6icu_7713UnicodeStringD1Ev(ptr noundef nonnull align 8 dereferenceable(64) %5) #21
  call void @llvm.lifetime.end.p0(i64 64, ptr nonnull %5) #21
  br label %27

21:                                               ; preds = %16, %11, %8
  %22 = landingpad { ptr, i32 }
          cleanup
  call void @_ZN6icu_7713UnicodeStringD1Ev(ptr noundef nonnull align 8 dereferenceable(64) %5) #21
  call void @llvm.lifetime.end.p0(i64 64, ptr nonnull %5) #21
  br label %28

23:                                               ; preds = %4
  store ptr getelementptr inbounds nuw inrange(-16, 88) (i8, ptr @_ZTVN6icu_7713UnicodeStringE, i64 16), ptr %0, align 8, !tbaa !3
  %24 = getelementptr inbounds nuw i8, ptr %0, i64 8
  store i16 2, ptr %24, align 8, !tbaa !55
  invoke void @_ZN6icu_7713UnicodeString10setToBogusEv(ptr noundef nonnull align 8 dereferenceable(64) %0)
          to label %27 unwind label %25

25:                                               ; preds = %23
  %26 = landingpad { ptr, i32 }
          cleanup
  tail call void @_ZN6icu_7713UnicodeStringD1Ev(ptr noundef nonnull align 8 dereferenceable(64) %0) #21
  br label %28

27:                                               ; preds = %23, %20
  ret void

28:                                               ; preds = %25, %21
  %.pn = phi { ptr, i32 } [ %22, %21 ], [ %26, %25 ]
  resume { ptr, i32 } %.pn
}